target datalayout = "e-m:e-p270:32:32-p271:32:32-p272:64:64-i64:64-i128:128-f80:128-n8:16:32:64-S128"
target triple = "x86_64-pc-linux-gnu"

%struct.jit_State = type { %struct.GCtrace, ptr, ptr, ptr, ptr, ptr, ptr, i32, i32, i32, i8, i8, %struct.IRType1, i8, %struct.FoldState, ptr, i32, i32, i32, i32, i32, i32, i32, [1 x i32], [5 x %union.TValue], [3 x %union.TValue], ptr, i32, i32, i32, i32, ptr, ptr, i32, i32, i8, ptr, i32, i32, i16, [101 x i16], [258 x i32], [15 x i32], [16 x ptr], [64 x %struct.HotPenalty], i32, [16 x %struct.BPropEntry], i32, %struct.ScEvEntry, ptr, i32, i32, i32, ptr, i32, i32, ptr, ptr, ptr, i64, i64, %union.TValue, ptr, i32, i32 }
%struct.GCtrace = type { %struct.GCRef, i8, i8, i16, i32, i32, %struct.GCRef, ptr, i32, i32, ptr, ptr, %struct.GCRef, %struct.MRef, i32, i32, ptr, i32, i16, i16, i16, i16, i16, i16, i16, i8, i8, i8, i8 }
%struct.GCRef = type { i64 }
%struct.MRef = type { i64 }
%struct.IRType1 = type { i8 }
%struct.FoldState = type { %union.IRIns, [2 x %union.IRIns], [2 x %union.IRIns] }
%union.IRIns = type { %struct.GCRef }
%struct.HotPenalty = type { %struct.MRef, i16, i16 }
%struct.BPropEntry = type { i16, i16, i32 }
%struct.ScEvEntry = type { %struct.MRef, i16, i16, i16, i16, %struct.IRType1, i8 }
%union.TValue = type { i64 }
%struct.anon.0 = type { i32, %struct.IRType1, i8, i8, i8 }
%struct.anon = type { i16, i16, i16, i16 }

; Function Attrs: alwaysinline nounwind uwtable
define internal i32 @ir_nextk64(ptr noundef %0) #5 {
  %2 = alloca ptr, align 8
  %3 = alloca i32, align 4
  store ptr %0, ptr %2, align 8, !tbaa !4
  call void @llvm.lifetime.start.p0(i64 4, ptr %3) #10
  %4 = load ptr, ptr %2, align 8, !tbaa !4
  %5 = getelementptr inbounds nuw %struct.jit_State, ptr %4, i32 0, i32 0
  %6 = getelementptr inbounds nuw %struct.GCtrace, ptr %5, i32 0, i32 8
  %7 = load i32, ptr %6, align 8, !tbaa !50
  %8 = sub i32 %7, 2
  store i32 %8, ptr %3, align 4, !tbaa !32
  %9 = load i32, ptr %3, align 4, !tbaa !32
  %10 = load ptr, ptr %2, align 8, !tbaa !4
  %11 = getelementptr inbounds nuw %struct.jit_State, ptr %10, i32 0, i32 28
  %12 = load i32, ptr %11, align 4, !tbaa !29
  %13 = icmp ult i32 %9, %12
  %14 = xor i1 %13, true
  %15 = xor i1 %14, true
  %16 = zext i1 %15 to i32
  %17 = sext i32 %16 to i64
  %18 = call i64 @llvm.expect.i64(i64 %17, i64 0)
  %19 = icmp ne i64 %18, 0
  br i1 %19, label %20, label %22

20:                                               ; preds = %1
  %21 = load ptr, ptr %2, align 8, !tbaa !4
  call void @lj_ir_growbot(ptr noundef %21)
  br label %22

22:                                               ; preds = %20, %1
  %23 = load i32, ptr %3, align 4, !tbaa !32
  %24 = load ptr, ptr %2, align 8, !tbaa !4
  %25 = getelementptr inbounds nuw %struct.jit_State, ptr %24, i32 0, i32 0
  %26 = getelementptr inbounds nuw %struct.GCtrace, ptr %25, i32 0, i32 8
  store i32 %23, ptr %26, align 8, !tbaa !50
  %27 = load i32, ptr %3, align 4, !tbaa !32
  call void @llvm.lifetime.end.p0(i64 4, ptr %3) #10
  ret i32 %27
}

; Function Attrs: nounwind uwtable
define hidden i32 @lj_ir_ktrace(ptr noundef %0) #3 {
  %2 = alloca ptr, align 8
  %3 = alloca i32, align 4
  %4 = alloca ptr, align 8
  store ptr %0, ptr %2, align 8, !tbaa !4
  call void @llvm.lifetime.start.p0(i64 4, ptr %3) #10
  %5 = load ptr, ptr %2, align 8, !tbaa !4
  %6 = call i32 @ir_nextk64(ptr noundef %5)
  store i32 %6, ptr %3, align 4, !tbaa !32
  call void @llvm.lifetime.start.p0(i64 8, ptr %4) #10
  %7 = load ptr, ptr %2, align 8, !tbaa !4
  %8 = getelementptr inbounds nuw %struct.jit_State, ptr %7, i32 0, i32 0
  %9 = getelementptr inbounds nuw %struct.GCtrace, ptr %8, i32 0, i32 7
  %10 = load ptr, ptr %9, align 8, !tbaa !34
  %11 = load i32, ptr %3, align 4, !tbaa !32
  %12 = zext i32 %11 to i64
  %13 = getelementptr inbounds nuw %union.IRIns, ptr %10, i64 %12
  store ptr %13, ptr %4, align 8, !tbaa !30
  %14 = load ptr, ptr %4, align 8, !tbaa !30
  %15 = getelementptr inbounds nuw %struct.anon.0, ptr %14, i32 0, i32 1
  %16 = getelementptr inbounds nuw %struct.IRType1, ptr %15, i32 0, i32 0
  store i8 9, ptr %16, align 4, !tbaa !35
  %17 = load ptr, ptr %4, align 8, !tbaa !30
  %18 = getelementptr inbounds nuw %struct.anon.0, ptr %17, i32 0, i32 2
  store i8 28, ptr %18, align 1, !tbaa !35
  %19 = load ptr, ptr %4, align 8, !tbaa !30
  %20 = getelementptr inbounds nuw %struct.anon.0, ptr %19, i32 0, i32 0
  store i32 0, ptr %20, align 8, !tbaa !35
  %21 = load ptr, ptr %4, align 8, !tbaa !30
  %22 = getelementptr inbounds nuw %struct.anon, ptr %21, i32 0, i32 3
  store i16 0, ptr %22, align 2, !tbaa !35
  %23 = load i32, ptr %3, align 4, !tbaa !32
  %24 = add i32 %23, 150994944
  call void @llvm.lifetime.end.p0(i64 8, ptr %4) #10
  call void @llvm.lifetime.end.p0(i64 4, ptr %3) #10
  ret i32 %24
}