; Function Attrs: nounwind uwtable
define hidden i32 @lj_ir_ktrace(ptr noundef captures(none) %0) local_unnamed_addr #6 {
  %2 = getelementptr inbounds nuw i8, ptr %0, i64 40
  %3 = load i32, ptr %2, align 8, !tbaa !43
  %4 = add i32 %3, -2
  %5 = getelementptr inbounds nuw i8, ptr %0, i64 340
  %6 = load i32, ptr %5, align 4, !tbaa !4
  %7 = icmp ult i32 %4, %6
  br i1 %7, label %8, label %ir_nextk64.exit, !prof !45

8:                                                ; preds = %1
  tail call fastcc void @lj_ir_growbot(ptr noundef nonnull %0)
  br label %ir_nextk64.exit

ir_nextk64.exit:                                  ; preds = %1, %8
  store i32 %4, ptr %2, align 8, !tbaa !43
  %9 = getelementptr inbounds nuw i8, ptr %0, i64 32
  %10 = load ptr, ptr %9, align 8, !tbaa !30
  %11 = zext i32 %4 to i64
  %12 = getelementptr inbounds nuw %union.IRIns, ptr %10, i64 %11
  %13 = getelementptr inbounds nuw i8, ptr %12, i64 4
  store i8 9, ptr %13, align 4, !tbaa !33
  %14 = getelementptr inbounds nuw i8, ptr %12, i64 5
  store i8 28, ptr %14, align 1, !tbaa !33
  store i32 0, ptr %12, align 8, !tbaa !33
  %15 = getelementptr inbounds nuw i8, ptr %12, i64 6
  store i16 0, ptr %15, align 2, !tbaa !33
  %16 = add i32 %3, 150994942
  ret i32 %16
}